target datalayout = "e-m:e-p270:32:32-p271:32:32-p272:64:64-i64:64-i128:128-f80:128-n8:16:32:64-S128"
target triple = "x86_64-pc-linux-gnu"

%struct.IPAddressFamily_st = type { ptr, ptr }
%struct.asn1_string_st = type { i32, i32, ptr, i64 }

@IPAddressChoice_it.local_it = internal constant { i8, [7 x i8], i64, ptr, i64, ptr, i64, ptr } { i8 2, [7 x i8] zeroinitializer, i64 0, ptr @IPAddressChoice_ch_tt, i64 2, ptr null, i64 16, ptr @.str.2 }, align 8
@IPAddressFamily_it.local_it = internal constant { i8, [7 x i8], i64, ptr, i64, ptr, i64, ptr } { i8 1, [7 x i8] zeroinitializer, i64 16, ptr @IPAddressFamily_seq_tt, i64 2, ptr null, i64 16, ptr @.str.3 }, align 8

; Function Attrs: nounwind uwtable
define ptr @IPAddressChoice_it() #0 {
  ret ptr @IPAddressChoice_it.local_it
}

; Function Attrs: nounwind uwtable
define ptr @IPAddressFamily_it() #0 {
  ret ptr @IPAddressFamily_it.local_it
}

; Function Attrs: nounwind uwtable
define void @IPAddressFamily_free(ptr noundef %0) #0 {
  %2 = alloca ptr, align 8
  store ptr %0, ptr %2, align 8, !tbaa !24
  %3 = load ptr, ptr %2, align 8, !tbaa !24
  %4 = call ptr @IPAddressFamily_it()
  call void @ASN1_item_free(ptr noundef %3, ptr noundef %4)
  ret void
}

; Function Attrs: inlinehint nounwind uwtable
define internal ptr @ossl_check_IPAddressFamily_type(ptr noundef %0) #3 {
  %2 = alloca ptr, align 8
  store ptr %0, ptr %2, align 8, !tbaa !24
  %3 = load ptr, ptr %2, align 8, !tbaa !24
  ret ptr %3
}

; Function Attrs: inlinehint nounwind uwtable
define internal ptr @ossl_check_IPAddressFamily_sk_type(ptr noundef %0) #3 {
  %2 = alloca ptr, align 8
  store ptr %0, ptr %2, align 8, !tbaa !35
  %3 = load ptr, ptr %2, align 8, !tbaa !35
  ret ptr %3
}

; Function Attrs: nounwind uwtable
define ptr @IPAddressChoice_new() #0 {
  %1 = call ptr @IPAddressChoice_it()
  %2 = call ptr @ASN1_item_new(ptr noundef %1)
  ret ptr %2
}

; Function Attrs: nounwind uwtable
define ptr @IPAddressFamily_new() #0 {
  %1 = call ptr @IPAddressFamily_it()
  %2 = call ptr @ASN1_item_new(ptr noundef %1)
  ret ptr %2
}

; Function Attrs: inlinehint nounwind uwtable
define internal ptr @ossl_check_const_IPAddressFamily_sk_type(ptr noundef %0) #3 {
  %2 = alloca ptr, align 8
  store ptr %0, ptr %2, align 8, !tbaa !35
  %3 = load ptr, ptr %2, align 8, !tbaa !35
  ret ptr %3
}

; Function Attrs: nounwind uwtable
define internal ptr @make_IPAddressFamily(ptr noundef %0, i32 noundef %1, ptr noundef %2) #0 {
  %4 = alloca ptr, align 8
  %5 = alloca ptr, align 8
  %6 = alloca i32, align 4
  %7 = alloca ptr, align 8
  %8 = alloca ptr, align 8
  %9 = alloca [3 x i8], align 1
  %10 = alloca i32, align 4
  %11 = alloca i32, align 4
  %12 = alloca i32, align 4
  store ptr %0, ptr %5, align 8, !tbaa !35
  store i32 %1, ptr %6, align 4, !tbaa !37
  store ptr %2, ptr %7, align 8, !tbaa !38
  call void @llvm.lifetime.start.p0(i64 8, ptr %8) #9
  call void @llvm.lifetime.start.p0(i64 3, ptr %9) #9
  call void @llvm.lifetime.start.p0(i64 4, ptr %10) #9
  call void @llvm.lifetime.start.p0(i64 4, ptr %11) #9
  %13 = load i32, ptr %6, align 4, !tbaa !37
  %14 = lshr i32 %13, 8
  %15 = and i32 %14, 255
  %16 = trunc i32 %15 to i8
  %17 = getelementptr inbounds [3 x i8], ptr %9, i64 0, i64 0
  store i8 %16, ptr %17, align 1, !tbaa !34
  %18 = load i32, ptr %6, align 4, !tbaa !37
  %19 = and i32 %18, 255
  %20 = trunc i32 %19 to i8
  %21 = getelementptr inbounds [3 x i8], ptr %9, i64 0, i64 1
  store i8 %20, ptr %21, align 1, !tbaa !34
  %22 = load ptr, ptr %7, align 8, !tbaa !38
  %23 = icmp ne ptr %22, null
  br i1 %23, label %24, label %30

24:                                               ; preds = %3
  %25 = load ptr, ptr %7, align 8, !tbaa !38
  %26 = load i32, ptr %25, align 4, !tbaa !37
  %27 = and i32 %26, 255
  %28 = trunc i32 %27 to i8
  %29 = getelementptr inbounds [3 x i8], ptr %9, i64 0, i64 2
  store i8 %28, ptr %29, align 1, !tbaa !34
  store i32 3, ptr %10, align 4, !tbaa !37
  br label %31

30:                                               ; preds = %3
  store i32 2, ptr %10, align 4, !tbaa !37
  br label %31

31:                                               ; preds = %30, %24
  store i32 0, ptr %11, align 4, !tbaa !37
  br label %32

32:                                               ; preds = %64, %31
  %33 = load i32, ptr %11, align 4, !tbaa !37
  %34 = load ptr, ptr %5, align 8, !tbaa !35
  %35 = call ptr @ossl_check_const_IPAddressFamily_sk_type(ptr noundef %34)
  %36 = call i32 @OPENSSL_sk_num(ptr noundef %35)
  %37 = icmp slt i32 %33, %36
  br i1 %37, label %38, label %67

38:                                               ; preds = %32
  %39 = load ptr, ptr %5, align 8, !tbaa !35
  %40 = call ptr @ossl_check_const_IPAddressFamily_sk_type(ptr noundef %39)
  %41 = load i32, ptr %11, align 4, !tbaa !37
  %42 = call ptr @OPENSSL_sk_value(ptr noundef %40, i32 noundef %41)
  store ptr %42, ptr %8, align 8, !tbaa !24
  %43 = load ptr, ptr %8, align 8, !tbaa !24
  %44 = getelementptr inbounds nuw %struct.IPAddressFamily_st, ptr %43, i32 0, i32 0
  %45 = load ptr, ptr %44, align 8, !tbaa !26
  %46 = getelementptr inbounds nuw %struct.asn1_string_st, ptr %45, i32 0, i32 0
  %47 = load i32, ptr %46, align 8, !tbaa !33
  %48 = load i32, ptr %10, align 4, !tbaa !37
  %49 = icmp eq i32 %47, %48
  br i1 %49, label %50, label %63

50:                                               ; preds = %38
  %51 = load ptr, ptr %8, align 8, !tbaa !24
  %52 = getelementptr inbounds nuw %struct.IPAddressFamily_st, ptr %51, i32 0, i32 0
  %53 = load ptr, ptr %52, align 8, !tbaa !26
  %54 = getelementptr inbounds nuw %struct.asn1_string_st, ptr %53, i32 0, i32 2
  %55 = load ptr, ptr %54, align 8, !tbaa !29
  %56 = getelementptr inbounds [3 x i8], ptr %9, i64 0, i64 0
  %57 = load i32, ptr %10, align 4, !tbaa !37
  %58 = sext i32 %57 to i64
  %59 = call i32 @memcmp(ptr noundef %55, ptr noundef %56, i64 noundef %58) #10
  %60 = icmp ne i32 %59, 0
  br i1 %60, label %63, label %61

61:                                               ; preds = %50
  %62 = load ptr, ptr %8, align 8, !tbaa !24
  store ptr %62, ptr %4, align 8
  store i32 1, ptr %12, align 4
  br label %114

63:                                               ; preds = %50, %38
  br label %64

64:                                               ; preds = %63
  %65 = load i32, ptr %11, align 4, !tbaa !37
  %66 = add nsw i32 %65, 1
  store i32 %66, ptr %11, align 4, !tbaa !37
  br label %32, !llvm.loop !43

67:                                               ; preds = %32
  %68 = call ptr @IPAddressFamily_new()
  store ptr %68, ptr %8, align 8, !tbaa !24
  %69 = icmp eq ptr %68, null
  br i1 %69, label %70, label %71

70:                                               ; preds = %67
  br label %112

71:                                               ; preds = %67
  %72 = load ptr, ptr %8, align 8, !tbaa !24
  %73 = getelementptr inbounds nuw %struct.IPAddressFamily_st, ptr %72, i32 0, i32 1
  %74 = load ptr, ptr %73, align 8, !tbaa !40
  %75 = icmp eq ptr %74, null
  br i1 %75, label %76, label %82

76:                                               ; preds = %71
  %77 = call ptr @IPAddressChoice_new()
  %78 = load ptr, ptr %8, align 8, !tbaa !24
  %79 = getelementptr inbounds nuw %struct.IPAddressFamily_st, ptr %78, i32 0, i32 1
  store ptr %77, ptr %79, align 8, !tbaa !40
  %80 = icmp eq ptr %77, null
  br i1 %80, label %81, label %82

81:                                               ; preds = %76
  br label %112

82:                                               ; preds = %76, %71
  %83 = load ptr, ptr %8, align 8, !tbaa !24
  %84 = getelementptr inbounds nuw %struct.IPAddressFamily_st, ptr %83, i32 0, i32 0
  %85 = load ptr, ptr %84, align 8, !tbaa !26
  %86 = icmp eq ptr %85, null
  br i1 %86, label %87, label %93

87:                                               ; preds = %82
  %88 = call ptr @ASN1_OCTET_STRING_new()
  %89 = load ptr, ptr %8, align 8, !tbaa !24
  %90 = getelementptr inbounds nuw %struct.IPAddressFamily_st, ptr %89, i32 0, i32 0
  store ptr %88, ptr %90, align 8, !tbaa !26
  %91 = icmp eq ptr %88, null
  br i1 %91, label %92, label %93

92:                                               ; preds = %87
  br label %112

93:                                               ; preds = %87, %82
  %94 = load ptr, ptr %8, align 8, !tbaa !24
  %95 = getelementptr inbounds nuw %struct.IPAddressFamily_st, ptr %94, i32 0, i32 0
  %96 = load ptr, ptr %95, align 8, !tbaa !26
  %97 = getelementptr inbounds [3 x i8], ptr %9, i64 0, i64 0
  %98 = load i32, ptr %10, align 4, !tbaa !37
  %99 = call i32 @ASN1_OCTET_STRING_set(ptr noundef %96, ptr noundef %97, i32 noundef %98)
  %100 = icmp ne i32 %99, 0
  br i1 %100, label %102, label %101

101:                                              ; preds = %93
  br label %112

102:                                              ; preds = %93
  %103 = load ptr, ptr %5, align 8, !tbaa !35
  %104 = call ptr @ossl_check_IPAddressFamily_sk_type(ptr noundef %103)
  %105 = load ptr, ptr %8, align 8, !tbaa !24
  %106 = call ptr @ossl_check_IPAddressFamily_type(ptr noundef %105)
  %107 = call i32 @OPENSSL_sk_push(ptr noundef %104, ptr noundef %106)
  %108 = icmp ne i32 %107, 0
  br i1 %108, label %110, label %109

109:                                              ; preds = %102
  br label %112

110:                                              ; preds = %102
  %111 = load ptr, ptr %8, align 8, !tbaa !24
  store ptr %111, ptr %4, align 8
  store i32 1, ptr %12, align 4
  br label %114

112:                                              ; preds = %109, %101, %92, %81, %70
  %113 = load ptr, ptr %8, align 8, !tbaa !24
  call void @IPAddressFamily_free(ptr noundef %113)
  store ptr null, ptr %4, align 8
  store i32 1, ptr %12, align 4
  br label %114

114:                                              ; preds = %112, %110, %61
  call void @llvm.lifetime.end.p0(i64 4, ptr %11) #9
  call void @llvm.lifetime.end.p0(i64 4, ptr %10) #9
  call void @llvm.lifetime.end.p0(i64 3, ptr %9) #9
  call void @llvm.lifetime.end.p0(i64 8, ptr %8) #9
  %115 = load ptr, ptr %4, align 8
  ret ptr %115
}