; Function Attrs: nounwind uwtable
define internal fastcc ptr @make_IPAddressFamily(ptr noundef %0, i32 noundef %1, ptr noundef readonly captures(address_is_null) %2) unnamed_addr #1 {
  %4 = alloca [3 x i8], align 1
  call void @llvm.lifetime.start.p0(i64 3, ptr nonnull %4) #15
  %5 = lshr i32 %1, 8
  %6 = trunc i32 %5 to i8
  store i8 %6, ptr %4, align 1, !tbaa !16
  %7 = trunc i32 %1 to i8
  %8 = getelementptr inbounds nuw i8, ptr %4, i64 1
  store i8 %7, ptr %8, align 1, !tbaa !16
  %.not = icmp eq ptr %2, null
  br i1 %.not, label %13, label %9

9:                                                ; preds = %3
  %10 = load i32, ptr %2, align 4, !tbaa !20
  %11 = trunc i32 %10 to i8
  %12 = getelementptr inbounds nuw i8, ptr %4, i64 2
  store i8 %11, ptr %12, align 1, !tbaa !16
  br label %13

13:                                               ; preds = %3, %9
  %.024 = phi i32 [ 3, %9 ], [ 2, %3 ]
  %14 = tail call i32 @OPENSSL_sk_num(ptr noundef %0) #15
  %15 = icmp sgt i32 %14, 0
  br i1 %15, label %.lr.ph, label %._crit_edge

.lr.ph:                                           ; preds = %13
  %16 = zext nneg i32 %.024 to i64
  br label %17

17:                                               ; preds = %.lr.ph, %25
  %.031 = phi i32 [ 0, %.lr.ph ], [ %26, %25 ]
  %18 = tail call ptr @OPENSSL_sk_value(ptr noundef %0, i32 noundef %.031) #15
  %19 = load ptr, ptr %18, align 8, !tbaa !3
  %20 = load i32, ptr %19, align 8, !tbaa !15
  %21 = icmp eq i32 %20, %.024
  br i1 %21, label %22, label %25

22:                                               ; preds = %17
  %23 = getelementptr inbounds nuw i8, ptr %19, i64 8
  %24 = load ptr, ptr %23, align 8, !tbaa !10
  %bcmp = call i32 @bcmp(ptr noundef nonnull dereferenceable(1) %24, ptr noundef nonnull dereferenceable(1) %4, i64 %16)
  %.not30 = icmp eq i32 %bcmp, 0
  br i1 %.not30, label %.loopexit, label %25

25:                                               ; preds = %17, %22
  %26 = add nuw nsw i32 %.031, 1
  %27 = tail call i32 @OPENSSL_sk_num(ptr noundef %0) #15
  %28 = icmp slt i32 %26, %27
  br i1 %28, label %17, label %._crit_edge, !llvm.loop !21

._crit_edge:                                      ; preds = %25, %13
  %29 = tail call ptr @ASN1_item_new(ptr noundef nonnull @IPAddressFamily_it.local_it) #15
  %30 = icmp eq ptr %29, null
  br i1 %30, label %49, label %31

31:                                               ; preds = %._crit_edge
  %32 = getelementptr inbounds nuw i8, ptr %29, i64 8
  %33 = load ptr, ptr %32, align 8, !tbaa !17
  %34 = icmp eq ptr %33, null
  br i1 %34, label %35, label %38

35:                                               ; preds = %31
  %36 = tail call ptr @ASN1_item_new(ptr noundef nonnull @IPAddressChoice_it.local_it) #15
  store ptr %36, ptr %32, align 8, !tbaa !17
  %37 = icmp eq ptr %36, null
  br i1 %37, label %49, label %38

38:                                               ; preds = %35, %31
  %39 = load ptr, ptr %29, align 8, !tbaa !3
  %40 = icmp eq ptr %39, null
  br i1 %40, label %41, label %44

41:                                               ; preds = %38
  %42 = tail call ptr @ASN1_OCTET_STRING_new() #15
  store ptr %42, ptr %29, align 8, !tbaa !3
  %43 = icmp eq ptr %42, null
  br i1 %43, label %49, label %44

44:                                               ; preds = %41, %38
  %45 = phi ptr [ %42, %41 ], [ %39, %38 ]
  %46 = call i32 @ASN1_OCTET_STRING_set(ptr noundef nonnull %45, ptr noundef nonnull %4, i32 noundef %.024) #15
  %.not28 = icmp eq i32 %46, 0
  br i1 %.not28, label %49, label %47

47:                                               ; preds = %44
  %48 = call i32 @OPENSSL_sk_push(ptr noundef %0, ptr noundef nonnull %29) #15
  %.not29 = icmp eq i32 %48, 0
  br i1 %.not29, label %49, label %.loopexit

49:                                               ; preds = %47, %44, %41, %35, %._crit_edge
  call void @ASN1_item_free(ptr noundef %29, ptr noundef nonnull @IPAddressFamily_it.local_it) #15
  br label %.loopexit

.loopexit:                                        ; preds = %22, %47, %49
  %.025 = phi ptr [ null, %49 ], [ %29, %47 ], [ %18, %22 ]
  call void @llvm.lifetime.end.p0(i64 3, ptr nonnull %4) #15
  ret ptr %.025
}